target datalayout = "e-m:e-p270:32:32-p271:32:32-p272:64:64-i64:64-i128:128-f80:128-n8:16:32:64-S128"
target triple = "x86_64-pc-linux-gnu"

@Log_directory = dso_local global ptr null, align 8
@syslogPipe = dso_local global [2 x i32] [i32 -1, i32 -1], align 4
@redirection_done = external global i8, align 1
@first_syslogger_file_time = internal global i64 0, align 8
@csvlogFile = internal global ptr null, align 8
@.str.1 = private unnamed_addr constant [5 x i8] c".csv\00", align 1
@jsonlogFile = internal global ptr null, align 8
@.str.2 = private unnamed_addr constant [6 x i8] c".json\00", align 1
@Log_destination = external global i32, align 4
@syslogFile = internal global ptr null, align 8
@.str.4 = private unnamed_addr constant [12 x i8] c"syslogger.c\00", align 1
@.str.6 = private unnamed_addr constant [37 x i8] c"could not create pipe for syslog: %m\00", align 1
@__func__.SysLogger_Start = private unnamed_addr constant [16 x i8] c"SysLogger_Start\00", align 1
@.str.7 = private unnamed_addr constant [2 x i8] c"a\00", align 1
@.str.8 = private unnamed_addr constant [33 x i8] c"could not fork system logger: %m\00", align 1
@.str.9 = private unnamed_addr constant [52 x i8] c"redirecting log output to logging collector process\00", align 1
@.str.10 = private unnamed_addr constant [49 x i8] c"Future log output will appear in directory \22%s\22.\00", align 1
@stdout = external global ptr, align 8
@.str.11 = private unnamed_addr constant [30 x i8] c"could not redirect stdout: %m\00", align 1
@stderr = external global ptr, align 8
@.str.12 = private unnamed_addr constant [30 x i8] c"could not redirect stderr: %m\00", align 1

; Function Attrs: nounwind uwtable
define dso_local i32 @SysLogger_Start(i32 noundef %0) #4 {
  %2 = alloca i32, align 4
  %3 = alloca i32, align 4
  %4 = alloca i32, align 4
  %5 = alloca ptr, align 8
  %6 = alloca i32, align 4
  store i32 %0, ptr %3, align 4
  call void @llvm.lifetime.start.p0(i64 4, ptr %4) #12
  call void @llvm.lifetime.start.p0(i64 8, ptr %5) #12
  %7 = load i32, ptr @syslogPipe, align 4
  %8 = icmp slt i32 %7, 0
  br i1 %8, label %9, label %25

9:                                                ; preds = %1
  %10 = call i32 @pipe(ptr noundef @syslogPipe) #12
  %11 = icmp slt i32 %10, 0
  br i1 %11, label %12, label %24

12:                                               ; preds = %9
  br label %13

13:                                               ; preds = %12
  br i1 true, label %14, label %16

14:                                               ; preds = %13
  %15 = call zeroext i1 @errstart_cold(i32 noundef 22, ptr noundef null) #15
  br i1 %15, label %18, label %21

16:                                               ; preds = %13
  %17 = call zeroext i1 @errstart(i32 noundef 22, ptr noundef null)
  br i1 %17, label %18, label %21

18:                                               ; preds = %16, %14
  %19 = call i32 @errcode_for_socket_access()
  %20 = call i32 (ptr, ...) @errmsg(ptr noundef @.str.6)
  call void @errfinish(ptr noundef @.str.4, i32 noundef 626, ptr noundef @__func__.SysLogger_Start)
  br label %21

21:                                               ; preds = %18, %16, %14
  unreachable

22:                                               ; No predecessors!
  br label %23

23:                                               ; preds = %22
  br label %24

24:                                               ; preds = %23, %9
  br label %25

25:                                               ; preds = %24, %1
  %26 = load ptr, ptr @Log_directory, align 8
  %27 = call i32 @MakePGDirectory(ptr noundef %26)
  %28 = call i64 @time(ptr noundef null) #12
  store i64 %28, ptr @first_syslogger_file_time, align 8
  %29 = load i64, ptr @first_syslogger_file_time, align 8
  %30 = call ptr @logfile_getname(i64 noundef %29, ptr noundef null)
  store ptr %30, ptr %5, align 8
  %31 = load ptr, ptr %5, align 8
  %32 = call ptr @logfile_open(ptr noundef %31, ptr noundef @.str.7, i1 noundef zeroext false)
  store ptr %32, ptr @syslogFile, align 8
  %33 = load ptr, ptr %5, align 8
  call void @pfree(ptr noundef %33)
  %34 = load i32, ptr @Log_destination, align 4
  %35 = and i32 %34, 8
  %36 = icmp ne i32 %35, 0
  br i1 %36, label %37, label %43

37:                                               ; preds = %25
  %38 = load i64, ptr @first_syslogger_file_time, align 8
  %39 = call ptr @logfile_getname(i64 noundef %38, ptr noundef @.str.1)
  store ptr %39, ptr %5, align 8
  %40 = load ptr, ptr %5, align 8
  %41 = call ptr @logfile_open(ptr noundef %40, ptr noundef @.str.7, i1 noundef zeroext false)
  store ptr %41, ptr @csvlogFile, align 8
  %42 = load ptr, ptr %5, align 8
  call void @pfree(ptr noundef %42)
  br label %43

43:                                               ; preds = %37, %25
  %44 = load i32, ptr @Log_destination, align 4
  %45 = and i32 %44, 16
  %46 = icmp ne i32 %45, 0
  br i1 %46, label %47, label %53

47:                                               ; preds = %43
  %48 = load i64, ptr @first_syslogger_file_time, align 8
  %49 = call ptr @logfile_getname(i64 noundef %48, ptr noundef @.str.2)
  store ptr %49, ptr %5, align 8
  %50 = load ptr, ptr %5, align 8
  %51 = call ptr @logfile_open(ptr noundef %50, ptr noundef @.str.7, i1 noundef zeroext false)
  store ptr %51, ptr @jsonlogFile, align 8
  %52 = load ptr, ptr %5, align 8
  call void @pfree(ptr noundef %52)
  br label %53

53:                                               ; preds = %47, %43
  %54 = load i32, ptr %3, align 4
  %55 = call i32 @postmaster_child_launch(i32 noundef 16, i32 noundef %54, ptr noundef null, i64 noundef 0, ptr noundef null)
  store i32 %55, ptr %4, align 4
  %56 = load i32, ptr %4, align 4
  %57 = icmp eq i32 %56, -1
  br i1 %57, label %58, label %69

58:                                               ; preds = %53
  br label %59

59:                                               ; preds = %58
  br i1 false, label %60, label %62

60:                                               ; preds = %59
  %61 = call zeroext i1 @errstart_cold(i32 noundef 15, ptr noundef null) #15
  br i1 %61, label %64, label %66

62:                                               ; preds = %59
  %63 = call zeroext i1 @errstart(i32 noundef 15, ptr noundef null)
  br i1 %63, label %64, label %66

64:                                               ; preds = %62, %60
  %65 = call i32 (ptr, ...) @errmsg(ptr noundef @.str.8)
  call void @errfinish(ptr noundef @.str.4, i32 noundef 711, ptr noundef @__func__.SysLogger_Start)
  br label %66

66:                                               ; preds = %64, %62, %60
  br label %67

67:                                               ; preds = %66
  br label %68

68:                                               ; preds = %67
  store i32 0, ptr %2, align 4
  store i32 1, ptr %6, align 4
  br label %139

69:                                               ; preds = %53
  %70 = load i8, ptr @redirection_done, align 1, !range !4, !noundef !5
  %71 = trunc i8 %70 to i1
  br i1 %71, label %123, label %72

72:                                               ; preds = %69
  br label %73

73:                                               ; preds = %72
  br i1 false, label %74, label %76

74:                                               ; preds = %73
  %75 = call zeroext i1 @errstart_cold(i32 noundef 15, ptr noundef null) #15
  br i1 %75, label %78, label %82

76:                                               ; preds = %73
  %77 = call zeroext i1 @errstart(i32 noundef 15, ptr noundef null)
  br i1 %77, label %78, label %82

78:                                               ; preds = %76, %74
  %79 = call i32 (ptr, ...) @errmsg(ptr noundef @.str.9)
  %80 = load ptr, ptr @Log_directory, align 8
  %81 = call i32 (ptr, ...) @errhint(ptr noundef @.str.10, ptr noundef %80)
  call void @errfinish(ptr noundef @.str.4, i32 noundef 732, ptr noundef @__func__.SysLogger_Start)
  br label %82

82:                                               ; preds = %78, %76, %74
  br label %83

83:                                               ; preds = %82
  br label %84

84:                                               ; preds = %83
  %85 = load ptr, ptr @stdout, align 8
  %86 = call i32 @fflush(ptr noundef %85)
  %87 = load i32, ptr getelementptr inbounds ([2 x i32], ptr @syslogPipe, i64 0, i64 1), align 4
  %88 = call i32 @dup2(i32 noundef %87, i32 noundef 1) #12
  %89 = icmp slt i32 %88, 0
  br i1 %89, label %90, label %102

90:                                               ; preds = %84
  br label %91

91:                                               ; preds = %90
  br i1 true, label %92, label %94

92:                                               ; preds = %91
  %93 = call zeroext i1 @errstart_cold(i32 noundef 22, ptr noundef null) #15
  br i1 %93, label %96, label %99

94:                                               ; preds = %91
  %95 = call zeroext i1 @errstart(i32 noundef 22, ptr noundef null)
  br i1 %95, label %96, label %99

96:                                               ; preds = %94, %92
  %97 = call i32 @errcode_for_file_access()
  %98 = call i32 (ptr, ...) @errmsg(ptr noundef @.str.11)
  call void @errfinish(ptr noundef @.str.4, i32 noundef 739, ptr noundef @__func__.SysLogger_Start)
  br label %99

99:                                               ; preds = %96, %94, %92
  unreachable

100:                                              ; No predecessors!
  br label %101

101:                                              ; preds = %100
  br label %102

102:                                              ; preds = %101, %84
  %103 = load ptr, ptr @stderr, align 8
  %104 = call i32 @fflush(ptr noundef %103)
  %105 = load i32, ptr getelementptr inbounds ([2 x i32], ptr @syslogPipe, i64 0, i64 1), align 4
  %106 = call i32 @dup2(i32 noundef %105, i32 noundef 2) #12
  %107 = icmp slt i32 %106, 0
  br i1 %107, label %108, label %120

108:                                              ; preds = %102
  br label %109

109:                                              ; preds = %108
  br i1 true, label %110, label %112

110:                                              ; preds = %109
  %111 = call zeroext i1 @errstart_cold(i32 noundef 22, ptr noundef null) #15
  br i1 %111, label %114, label %117

112:                                              ; preds = %109
  %113 = call zeroext i1 @errstart(i32 noundef 22, ptr noundef null)
  br i1 %113, label %114, label %117

114:                                              ; preds = %112, %110
  %115 = call i32 @errcode_for_file_access()
  %116 = call i32 (ptr, ...) @errmsg(ptr noundef @.str.12)
  call void @errfinish(ptr noundef @.str.4, i32 noundef 744, ptr noundef @__func__.SysLogger_Start)
  br label %117

117:                                              ; preds = %114, %112, %110
  unreachable

118:                                              ; No predecessors!
  br label %119

119:                                              ; preds = %118
  br label %120

120:                                              ; preds = %119, %102
  %121 = load i32, ptr getelementptr inbounds ([2 x i32], ptr @syslogPipe, i64 0, i64 1), align 4
  %122 = call i32 @close(i32 noundef %121)
  store i32 -1, ptr getelementptr inbounds ([2 x i32], ptr @syslogPipe, i64 0, i64 1), align 4
  store i8 1, ptr @redirection_done, align 1
  br label %123

123:                                              ; preds = %120, %69
  %124 = load ptr, ptr @syslogFile, align 8
  %125 = call i32 @fclose(ptr noundef %124)
  store ptr null, ptr @syslogFile, align 8
  %126 = load ptr, ptr @csvlogFile, align 8
  %127 = icmp ne ptr %126, null
  br i1 %127, label %128, label %131

128:                                              ; preds = %123
  %129 = load ptr, ptr @csvlogFile, align 8
  %130 = call i32 @fclose(ptr noundef %129)
  store ptr null, ptr @csvlogFile, align 8
  br label %131

131:                                              ; preds = %128, %123
  %132 = load ptr, ptr @jsonlogFile, align 8
  %133 = icmp ne ptr %132, null
  br i1 %133, label %134, label %137

134:                                              ; preds = %131
  %135 = load ptr, ptr @jsonlogFile, align 8
  %136 = call i32 @fclose(ptr noundef %135)
  store ptr null, ptr @jsonlogFile, align 8
  br label %137

137:                                              ; preds = %134, %131
  %138 = load i32, ptr %4, align 4
  store i32 %138, ptr %2, align 4
  store i32 1, ptr %6, align 4
  br label %139

139:                                              ; preds = %137, %68
  call void @llvm.lifetime.end.p0(i64 8, ptr %5) #12
  call void @llvm.lifetime.end.p0(i64 4, ptr %4) #12
  %140 = load i32, ptr %2, align 4
  ret i32 %140
}