; Function Attrs: nounwind uwtable
define dso_local range(i32 0, -1) i32 @SysLogger_Start(i32 noundef %0) local_unnamed_addr #5 {
  %2 = alloca i64, align 8
  %3 = load i32, ptr @syslogPipe, align 4
  %4 = icmp slt i32 %3, 0
  br i1 %4, label %5, label %12

5:                                                ; preds = %1
  %6 = tail call i32 @pipe(ptr noundef nonnull @syslogPipe) #15
  %7 = icmp slt i32 %6, 0
  br i1 %7, label %8, label %12

8:                                                ; preds = %5
  %9 = tail call zeroext i1 @errstart_cold(i32 noundef 22, ptr noundef null) #19
  tail call void @llvm.assume(i1 %9)
  %10 = tail call i32 @errcode_for_socket_access() #15
  %11 = tail call i32 (ptr, ...) @errmsg(ptr noundef nonnull @.str.6) #15
  tail call void @errfinish(ptr noundef nonnull @.str.4, i32 noundef 626, ptr noundef nonnull @__func__.SysLogger_Start) #15
  unreachable

12:                                               ; preds = %5, %1
  %13 = load ptr, ptr @Log_directory, align 8
  %14 = tail call i32 @MakePGDirectory(ptr noundef %13) #15
  %15 = tail call i64 @time(ptr noundef null) #15
  store i64 %15, ptr @first_syslogger_file_time, align 8
  call void @llvm.lifetime.start.p0(i64 8, ptr nonnull %2)
  store i64 %15, ptr %2, align 8
  %16 = tail call ptr @palloc(i64 noundef 1024) #15
  %17 = load ptr, ptr @Log_directory, align 8
  %18 = tail call i32 (ptr, i64, ptr, ...) @pg_snprintf(ptr noundef %16, i64 noundef 1024, ptr noundef nonnull @.str.18, ptr noundef %17) #15
  %19 = tail call i64 @strlen(ptr noundef nonnull dereferenceable(1) %16) #16
  %sext.i = shl i64 %19, 32
  %20 = ashr exact i64 %sext.i, 32
  %21 = getelementptr inbounds i8, ptr %16, i64 %20
  %sext17.i = sub i64 4398046511104, %sext.i
  %22 = ashr exact i64 %sext17.i, 32
  %23 = load ptr, ptr @Log_filename, align 8
  %24 = load ptr, ptr @log_timezone, align 8
  %25 = call ptr @pg_localtime(ptr noundef nonnull %2, ptr noundef %24) #15
  %26 = call i64 @pg_strftime(ptr noundef nonnull %21, i64 noundef %22, ptr noundef %23, ptr noundef %25) #15
  call void @llvm.lifetime.end.p0(i64 8, ptr nonnull %2)
  %27 = call fastcc ptr @logfile_open(ptr noundef nonnull %16, ptr noundef nonnull @.str.7, i1 noundef zeroext false)
  store ptr %27, ptr @syslogFile, align 8
  call void @pfree(ptr noundef nonnull %16) #15
  %28 = load i32, ptr @Log_destination, align 4
  %29 = and i32 %28, 8
  %.not = icmp eq i32 %29, 0
  br i1 %.not, label %34, label %30

30:                                               ; preds = %12
  %31 = load i64, ptr @first_syslogger_file_time, align 8
  %32 = call fastcc ptr @logfile_getname(i64 noundef %31, ptr noundef nonnull @.str.1)
  %33 = call fastcc ptr @logfile_open(ptr noundef %32, ptr noundef nonnull @.str.7, i1 noundef zeroext false)
  store ptr %33, ptr @csvlogFile, align 8
  call void @pfree(ptr noundef %32) #15
  %.pre = load i32, ptr @Log_destination, align 4
  br label %34

34:                                               ; preds = %30, %12
  %35 = phi i32 [ %.pre, %30 ], [ %28, %12 ]
  %36 = and i32 %35, 16
  %.not12 = icmp eq i32 %36, 0
  br i1 %.not12, label %41, label %37

37:                                               ; preds = %34
  %38 = load i64, ptr @first_syslogger_file_time, align 8
  %39 = call fastcc ptr @logfile_getname(i64 noundef %38, ptr noundef nonnull @.str.2)
  %40 = call fastcc ptr @logfile_open(ptr noundef %39, ptr noundef nonnull @.str.7, i1 noundef zeroext false)
  store ptr %40, ptr @jsonlogFile, align 8
  call void @pfree(ptr noundef %39) #15
  br label %41

41:                                               ; preds = %37, %34
  %42 = call i32 @postmaster_child_launch(i32 noundef 16, i32 noundef %0, ptr noundef null, i64 noundef 0, ptr noundef null) #15
  %43 = icmp eq i32 %42, -1
  br i1 %43, label %44, label %48

44:                                               ; preds = %41
  %45 = call zeroext i1 @errstart(i32 noundef 15, ptr noundef null) #15
  br i1 %45, label %46, label %90

46:                                               ; preds = %44
  %47 = call i32 (ptr, ...) @errmsg(ptr noundef nonnull @.str.8) #15
  call void @errfinish(ptr noundef nonnull @.str.4, i32 noundef 711, ptr noundef nonnull @__func__.SysLogger_Start) #15
  br label %90

48:                                               ; preds = %41
  %49 = load i8, ptr @redirection_done, align 1, !range !4, !noundef !5
  %50 = trunc nuw i8 %49 to i1
  br i1 %50, label %80, label %51

51:                                               ; preds = %48
  %52 = call zeroext i1 @errstart(i32 noundef 15, ptr noundef null) #15
  br i1 %52, label %53, label %57

53:                                               ; preds = %51
  %54 = call i32 (ptr, ...) @errmsg(ptr noundef nonnull @.str.9) #15
  %55 = load ptr, ptr @Log_directory, align 8
  %56 = call i32 (ptr, ...) @errhint(ptr noundef nonnull @.str.10, ptr noundef %55) #15
  call void @errfinish(ptr noundef nonnull @.str.4, i32 noundef 732, ptr noundef nonnull @__func__.SysLogger_Start) #15
  br label %57

57:                                               ; preds = %53, %51
  %58 = load ptr, ptr @stdout, align 8
  %59 = call i32 @fflush(ptr noundef %58)
  %60 = load i32, ptr getelementptr inbounds nuw (i8, ptr @syslogPipe, i64 4), align 4
  %61 = call i32 @dup2(i32 noundef %60, i32 noundef 1) #15
  %62 = icmp slt i32 %61, 0
  br i1 %62, label %63, label %67

63:                                               ; preds = %57
  %64 = call zeroext i1 @errstart_cold(i32 noundef 22, ptr noundef null) #19
  call void @llvm.assume(i1 %64)
  %65 = call i32 @errcode_for_file_access() #15
  %66 = call i32 (ptr, ...) @errmsg(ptr noundef nonnull @.str.11) #15
  call void @errfinish(ptr noundef nonnull @.str.4, i32 noundef 739, ptr noundef nonnull @__func__.SysLogger_Start) #15
  unreachable

67:                                               ; preds = %57
  %68 = load ptr, ptr @stderr, align 8
  %69 = call i32 @fflush(ptr noundef %68)
  %70 = load i32, ptr getelementptr inbounds nuw (i8, ptr @syslogPipe, i64 4), align 4
  %71 = call i32 @dup2(i32 noundef %70, i32 noundef 2) #15
  %72 = icmp slt i32 %71, 0
  br i1 %72, label %73, label %77

73:                                               ; preds = %67
  %74 = call zeroext i1 @errstart_cold(i32 noundef 22, ptr noundef null) #19
  call void @llvm.assume(i1 %74)
  %75 = call i32 @errcode_for_file_access() #15
  %76 = call i32 (ptr, ...) @errmsg(ptr noundef nonnull @.str.12) #15
  call void @errfinish(ptr noundef nonnull @.str.4, i32 noundef 744, ptr noundef nonnull @__func__.SysLogger_Start) #15
  unreachable

77:                                               ; preds = %67
  %78 = load i32, ptr getelementptr inbounds nuw (i8, ptr @syslogPipe, i64 4), align 4
  %79 = call i32 @close(i32 noundef %78) #15
  store i32 -1, ptr getelementptr inbounds nuw (i8, ptr @syslogPipe, i64 4), align 4
  store i8 1, ptr @redirection_done, align 1
  br label %80

80:                                               ; preds = %77, %48
  %81 = load ptr, ptr @syslogFile, align 8
  %82 = call i32 @fclose(ptr noundef %81)
  store ptr null, ptr @syslogFile, align 8
  %83 = load ptr, ptr @csvlogFile, align 8
  %.not13 = icmp eq ptr %83, null
  br i1 %.not13, label %86, label %84

84:                                               ; preds = %80
  %85 = call i32 @fclose(ptr noundef nonnull %83)
  store ptr null, ptr @csvlogFile, align 8
  br label %86

86:                                               ; preds = %84, %80
  %87 = load ptr, ptr @jsonlogFile, align 8
  %.not14 = icmp eq ptr %87, null
  br i1 %.not14, label %90, label %88

88:                                               ; preds = %86
  %89 = call i32 @fclose(ptr noundef nonnull %87)
  store ptr null, ptr @jsonlogFile, align 8
  br label %90

90:                                               ; preds = %86, %88, %44, %46
  %.0 = phi i32 [ 0, %46 ], [ 0, %44 ], [ %42, %88 ], [ %42, %86 ]
  ret i32 %.0
}